target datalayout = "e-m:e-p270:32:32-p271:32:32-p272:64:64-i64:64-i128:128-f80:128-n8:16:32:64-S128"
target triple = "x86_64-pc-linux-gnu"

%class.FragmentedWindow = type { [32 x ptr], [32 x i64] }

@_ZTISt9bad_alloc = external constant ptr
@_ZTVSt9bad_alloc = external unnamed_addr constant { [5 x ptr] }, align 8
@_ZTVSt9exception = external unnamed_addr constant { [5 x ptr] }, align 8

; Function Attrs: mustprogress nounwind uwtable
define linkonce_odr void @_ZNSt9exceptionC2Ev(ptr noundef nonnull align 8 dereferenceable(8) %0) unnamed_addr #1 comdat align 2 {
  %2 = alloca ptr, align 8
  store ptr %0, ptr %2, align 8
  %3 = load ptr, ptr %2, align 8
  store ptr getelementptr inbounds inrange(-16, 24) ({ [5 x ptr] }, ptr @_ZTVSt9exception, i32 0, i32 0, i32 2), ptr %3, align 8
  ret void
}

; Function Attrs: mustprogress nounwind uwtable
define linkonce_odr void @_ZNSt9bad_allocC2Ev(ptr noundef nonnull align 8 dereferenceable(8) %0) unnamed_addr #1 comdat align 2 {
  %2 = alloca ptr, align 8
  store ptr %0, ptr %2, align 8
  %3 = load ptr, ptr %2, align 8
  call void @_ZNSt9exceptionC2Ev(ptr noundef nonnull align 8 dereferenceable(8) %3) #12
  store ptr getelementptr inbounds inrange(-16, 24) ({ [5 x ptr] }, ptr @_ZTVSt9bad_alloc, i32 0, i32 0, i32 2), ptr %3, align 8
  ret void
}

; Function Attrs: mustprogress nounwind uwtable
define void @_ZN16FragmentedWindow5ResetEv(ptr noundef nonnull align 8 dereferenceable(512) %0) #1 align 2 {
  %2 = alloca ptr, align 8
  %3 = alloca i32, align 4
  store ptr %0, ptr %2, align 8
  %4 = load ptr, ptr %2, align 8
  store i32 0, ptr %3, align 4
  br label %5

5:                                                ; preds = %27, %1
  %6 = load i32, ptr %3, align 4
  %7 = zext i32 %6 to i64
  %8 = icmp ult i64 %7, 32
  br i1 %8, label %9, label %30

9:                                                ; preds = %5
  %10 = getelementptr inbounds %class.FragmentedWindow, ptr %4, i32 0, i32 0
  %11 = load i32, ptr %3, align 4
  %12 = zext i32 %11 to i64
  %13 = getelementptr inbounds [32 x ptr], ptr %10, i64 0, i64 %12
  %14 = load ptr, ptr %13, align 8
  %15 = icmp ne ptr %14, null
  br i1 %15, label %16, label %26

16:                                               ; preds = %9
  %17 = getelementptr inbounds %class.FragmentedWindow, ptr %4, i32 0, i32 0
  %18 = load i32, ptr %3, align 4
  %19 = zext i32 %18 to i64
  %20 = getelementptr inbounds [32 x ptr], ptr %17, i64 0, i64 %19
  %21 = load ptr, ptr %20, align 8
  call void @free(ptr noundef %21) #12
  %22 = getelementptr inbounds %class.FragmentedWindow, ptr %4, i32 0, i32 0
  %23 = load i32, ptr %3, align 4
  %24 = zext i32 %23 to i64
  %25 = getelementptr inbounds [32 x ptr], ptr %22, i64 0, i64 %24
  store ptr null, ptr %25, align 8
  br label %26

26:                                               ; preds = %16, %9
  br label %27

27:                                               ; preds = %26
  %28 = load i32, ptr %3, align 4
  %29 = add i32 %28, 1
  store i32 %29, ptr %3, align 4
  br label %5, !llvm.loop !113

30:                                               ; preds = %5
  ret void
}

; Function Attrs: mustprogress uwtable
define void @_ZN16FragmentedWindow4InitEm(ptr noundef nonnull align 8 dereferenceable(512) %0, i64 noundef %1) #0 align 2 {
  %3 = alloca ptr, align 8
  %4 = alloca i64, align 8
  %5 = alloca i32, align 4
  %6 = alloca i64, align 8
  %7 = alloca i64, align 8
  %8 = alloca i64, align 8
  %9 = alloca ptr, align 8
  store ptr %0, ptr %3, align 8
  store i64 %1, ptr %4, align 8
  %10 = load ptr, ptr %3, align 8
  call void @_ZN16FragmentedWindow5ResetEv(ptr noundef nonnull align 8 dereferenceable(512) %10)
  store i32 0, ptr %5, align 4
  store i64 0, ptr %6, align 8
  br label %11

11:                                               ; preds = %60, %2
  %12 = load i64, ptr %6, align 8
  %13 = load i64, ptr %4, align 8
  %14 = icmp ult i64 %12, %13
  br i1 %14, label %15, label %19

15:                                               ; preds = %11
  %16 = load i32, ptr %5, align 4
  %17 = zext i32 %16 to i64
  %18 = icmp ult i64 %17, 32
  br label %19

19:                                               ; preds = %15, %11
  %20 = phi i1 [ false, %11 ], [ %18, %15 ]
  br i1 %20, label %21, label %78

21:                                               ; preds = %19
  %22 = load i64, ptr %4, align 8
  %23 = load i64, ptr %6, align 8
  %24 = sub i64 %22, %23
  store i64 %24, ptr %7, align 8
  %25 = load i64, ptr %7, align 8
  %26 = load i32, ptr %5, align 4
  %27 = zext i32 %26 to i64
  %28 = sub i64 32, %27
  %29 = udiv i64 %25, %28
  %30 = icmp ugt i64 %29, 4194304
  br i1 %30, label %31, label %37

31:                                               ; preds = %21
  %32 = load i64, ptr %7, align 8
  %33 = load i32, ptr %5, align 4
  %34 = zext i32 %33 to i64
  %35 = sub i64 32, %34
  %36 = udiv i64 %32, %35
  br label %38

37:                                               ; preds = %21
  br label %38

38:                                               ; preds = %37, %31
  %39 = phi i64 [ %36, %31 ], [ 4194304, %37 ]
  store i64 %39, ptr %8, align 8
  store ptr null, ptr %9, align 8
  br label %40

40:                                               ; preds = %50, %38
  %41 = load i64, ptr %7, align 8
  %42 = load i64, ptr %8, align 8
  %43 = icmp uge i64 %41, %42
  br i1 %43, label %44, label %55

44:                                               ; preds = %40
  %45 = load i64, ptr %7, align 8
  %46 = call noalias ptr @malloc(i64 noundef %45) #13
  store ptr %46, ptr %9, align 8
  %47 = load ptr, ptr %9, align 8
  %48 = icmp ne ptr %47, null
  br i1 %48, label %49, label %50

49:                                               ; preds = %44
  br label %55

50:                                               ; preds = %44
  %51 = load i64, ptr %7, align 8
  %52 = udiv i64 %51, 32
  %53 = load i64, ptr %7, align 8
  %54 = sub i64 %53, %52
  store i64 %54, ptr %7, align 8
  br label %40, !llvm.loop !114

55:                                               ; preds = %49, %40
  %56 = load ptr, ptr %9, align 8
  %57 = icmp eq ptr %56, null
  br i1 %57, label %58, label %60

58:                                               ; preds = %55
  %59 = call ptr @__cxa_allocate_exception(i64 8) #12
  call void @_ZNSt9bad_allocC2Ev(ptr noundef nonnull align 8 dereferenceable(8) %59) #12
  call void @__cxa_throw(ptr %59, ptr @_ZTISt9bad_alloc, ptr @_ZNSt9bad_allocD1Ev) #14
  unreachable

60:                                               ; preds = %55
  %61 = load ptr, ptr %9, align 8
  %62 = load i64, ptr %7, align 8
  call void @llvm.memset.p0.i64(ptr align 1 %61, i8 0, i64 %62, i1 false)
  %63 = load ptr, ptr %9, align 8
  %64 = getelementptr inbounds %class.FragmentedWindow, ptr %10, i32 0, i32 0
  %65 = load i32, ptr %5, align 4
  %66 = zext i32 %65 to i64
  %67 = getelementptr inbounds [32 x ptr], ptr %64, i64 0, i64 %66
  store ptr %63, ptr %67, align 8
  %68 = load i64, ptr %7, align 8
  %69 = load i64, ptr %6, align 8
  %70 = add i64 %69, %68
  store i64 %70, ptr %6, align 8
  %71 = load i64, ptr %6, align 8
  %72 = getelementptr inbounds %class.FragmentedWindow, ptr %10, i32 0, i32 1
  %73 = load i32, ptr %5, align 4
  %74 = zext i32 %73 to i64
  %75 = getelementptr inbounds [32 x i64], ptr %72, i64 0, i64 %74
  store i64 %71, ptr %75, align 8
  %76 = load i32, ptr %5, align 4
  %77 = add i32 %76, 1
  store i32 %77, ptr %5, align 4
  br label %11, !llvm.loop !115

78:                                               ; preds = %19
  %79 = load i64, ptr %6, align 8
  %80 = load i64, ptr %4, align 8
  %81 = icmp ult i64 %79, %80
  br i1 %81, label %82, label %84

82:                                               ; preds = %78
  %83 = call ptr @__cxa_allocate_exception(i64 8) #12
  call void @_ZNSt9bad_allocC2Ev(ptr noundef nonnull align 8 dereferenceable(8) %83) #12
  call void @__cxa_throw(ptr %83, ptr @_ZTISt9bad_alloc, ptr @_ZNSt9bad_allocD1Ev) #14
  unreachable

84:                                               ; preds = %78
  ret void
}