; Function Attrs: mustprogress uwtable
define void @_ZN16FragmentedWindow4InitEm(ptr nocapture noundef nonnull align 8 dereferenceable(512) %0, i64 noundef %1) local_unnamed_addr #0 align 2 {
  br label %3

3:                                                ; preds = %7, %2
  %indvars.iv.i = phi i64 [ 0, %2 ], [ %indvars.iv.next.i, %7 ]
  %4 = getelementptr inbounds [32 x ptr], ptr %0, i64 0, i64 %indvars.iv.i
  %5 = load ptr, ptr %4, align 8
  %.not.i = icmp eq ptr %5, null
  br i1 %.not.i, label %7, label %6

6:                                                ; preds = %3
  tail call void @free(ptr noundef nonnull %5) #21
  store ptr null, ptr %4, align 8
  br label %7

7:                                                ; preds = %6, %3
  %indvars.iv.next.i = add nuw nsw i64 %indvars.iv.i, 1
  %exitcond.not.i = icmp eq i64 %indvars.iv.next.i, 32
  br i1 %exitcond.not.i, label %_ZN16FragmentedWindow5ResetEv.exit.preheader, label %3, !llvm.loop !113

_ZN16FragmentedWindow5ResetEv.exit.preheader:     ; preds = %7
  %.not51 = icmp eq i64 %1, 0
  br i1 %.not51, label %_ZN16FragmentedWindow5ResetEv.exit._crit_edge.thread, label %.lr.ph45

.lr.ph45:                                         ; preds = %_ZN16FragmentedWindow5ResetEv.exit.preheader
  %8 = getelementptr inbounds i8, ptr %0, i64 256
  br label %9

9:                                                ; preds = %.lr.ph45, %_ZN16FragmentedWindow5ResetEv.exit
  %indvars.iv = phi i64 [ 0, %.lr.ph45 ], [ %indvars.iv.next, %_ZN16FragmentedWindow5ResetEv.exit ]
  %.02943 = phi i64 [ 0, %.lr.ph45 ], [ %18, %_ZN16FragmentedWindow5ResetEv.exit ]
  %10 = sub i64 %1, %.02943
  %11 = sub nuw nsw i64 32, %indvars.iv
  %12 = udiv i64 %10, %11
  %spec.select = tail call i64 @llvm.umax.i64(i64 %12, i64 4194304)
  %.not40 = icmp ult i64 %10, 4194304
  br i1 %.not40, label %._crit_edge, label %.lr.ph

.lr.ph:                                           ; preds = %9, %13
  %.02841 = phi i64 [ %15, %13 ], [ %10, %9 ]
  %calloc = tail call ptr @calloc(i64 1, i64 %.02841)
  %.not35 = icmp eq ptr %calloc, null
  br i1 %.not35, label %13, label %_ZN16FragmentedWindow5ResetEv.exit

13:                                               ; preds = %.lr.ph
  %14 = lshr i64 %.02841, 5
  %15 = sub i64 %.02841, %14
  %.not = icmp ult i64 %15, %spec.select
  br i1 %.not, label %._crit_edge, label %.lr.ph, !llvm.loop !114

._crit_edge:                                      ; preds = %9, %13
  %16 = tail call ptr @__cxa_allocate_exception(i64 8) #21
  store ptr getelementptr inbounds inrange(-16, 24) ({ [5 x ptr] }, ptr @_ZTVSt9bad_alloc, i64 0, i32 0, i64 2), ptr %16, align 8
  tail call void @__cxa_throw(ptr nonnull %16, ptr nonnull @_ZTISt9bad_alloc, ptr nonnull @_ZNSt9bad_allocD1Ev) #23
  unreachable

_ZN16FragmentedWindow5ResetEv.exit:               ; preds = %.lr.ph
  %17 = getelementptr inbounds [32 x ptr], ptr %0, i64 0, i64 %indvars.iv
  store ptr %calloc, ptr %17, align 8
  %18 = add i64 %.02841, %.02943
  %19 = getelementptr inbounds [32 x i64], ptr %8, i64 0, i64 %indvars.iv
  store i64 %18, ptr %19, align 8
  %indvars.iv.next = add nuw nsw i64 %indvars.iv, 1
  %20 = icmp ult i64 %18, %1
  %21 = icmp ult i64 %indvars.iv, 31
  %22 = and i1 %20, %21
  br i1 %22, label %9, label %_ZN16FragmentedWindow5ResetEv.exit._crit_edge, !llvm.loop !115

_ZN16FragmentedWindow5ResetEv.exit._crit_edge:    ; preds = %_ZN16FragmentedWindow5ResetEv.exit
  br i1 %20, label %23, label %_ZN16FragmentedWindow5ResetEv.exit._crit_edge.thread

23:                                               ; preds = %_ZN16FragmentedWindow5ResetEv.exit._crit_edge
  %24 = tail call ptr @__cxa_allocate_exception(i64 8) #21
  store ptr getelementptr inbounds inrange(-16, 24) ({ [5 x ptr] }, ptr @_ZTVSt9bad_alloc, i64 0, i32 0, i64 2), ptr %24, align 8
  tail call void @__cxa_throw(ptr nonnull %24, ptr nonnull @_ZTISt9bad_alloc, ptr nonnull @_ZNSt9bad_allocD1Ev) #23
  unreachable

_ZN16FragmentedWindow5ResetEv.exit._crit_edge.thread: ; preds = %_ZN16FragmentedWindow5ResetEv.exit.preheader, %_ZN16FragmentedWindow5ResetEv.exit._crit_edge
  ret void
}